; Function Attrs: null_pointer_is_valid sspstrong uwtable
define internal void @show_status_subj_ref(ptr noundef %0, ptr readnone captures(none) %1, ptr noundef %2) #2 {
  %4 = load ptr, ptr @bp_history, align 8
  %5 = load ptr, ptr %4, align 8
  %6 = tail call ptr @wmem_map_lookup(ptr noundef %5, ptr noundef %0)
  %.not = icmp eq ptr %6, null
  br i1 %.not, label %proto_item_set_generated.exit, label %7

7:                                                ; preds = %3
  %8 = tail call ptr @wmem_list_head(ptr noundef nonnull %6)
  %.not13 = icmp eq ptr %8, null
  br i1 %.not13, label %proto_item_set_generated.exit, label %9

9:                                                ; preds = %7
  %10 = tail call ptr @wmem_list_frame_data(ptr noundef nonnull %8)
  %.not14 = icmp eq ptr %10, null
  br i1 %.not14, label %proto_item_set_generated.exit, label %11

11:                                               ; preds = %9
  %12 = load i32, ptr @hf_bundle_status_ref, align 4
  %13 = load i32, ptr %10, align 8
  %14 = tail call ptr @proto_tree_add_uint(ptr noundef %2, i32 noundef %12, ptr noundef null, i32 noundef 0, i32 noundef 0, i32 noundef %13)
  %.not.i = icmp eq ptr %14, null
  br i1 %.not.i, label %proto_item_set_generated.exit, label %15

15:                                               ; preds = %11
  %16 = getelementptr inbounds nuw i8, ptr %14, i64 40
  %17 = load ptr, ptr %16, align 8
  %.not5.i = icmp eq ptr %17, null
  br i1 %.not5.i, label %proto_item_set_generated.exit, label %18

18:                                               ; preds = %15
  %19 = getelementptr inbounds nuw i8, ptr %17, i64 28
  %20 = load i32, ptr %19, align 4
  %21 = or i32 %20, 2
  store i32 %21, ptr %19, align 4
  br label %proto_item_set_generated.exit

proto_item_set_generated.exit:                    ; preds = %3, %7, %18, %15, %11, %9
  ret void
}